target datalayout = "e-m:e-p270:32:32-p271:32:32-p272:64:64-i64:64-i128:128-f80:128-n8:16:32:64-S128"
target triple = "x86_64-unknown-linux-gnu"

%"struct.Assimp::Blender::ElemBase" = type { ptr, ptr }
%"struct.Assimp::Blender::MLoopUV" = type <{ %"struct.Assimp::Blender::ElemBase", [2 x float], i32, [4 x i8] }>

@_ZTIN6Assimp7Blender8ElemBaseE = linkonce_odr hidden constant { ptr, ptr } { ptr getelementptr inbounds (ptr, ptr @_ZTVN10__cxxabiv117__class_type_infoE, i64 2), ptr @_ZTSN6Assimp7Blender8ElemBaseE }, comdat, align 8
@_ZTIN6Assimp7Blender7MLoopUVE = linkonce_odr hidden constant { ptr, ptr, ptr } { ptr getelementptr inbounds (ptr, ptr @_ZTVN10__cxxabiv120__si_class_type_infoE, i64 2), ptr @_ZTSN6Assimp7Blender7MLoopUVE, ptr @_ZTIN6Assimp7Blender8ElemBaseE }, comdat, align 8

; Function Attrs: mustprogress nounwind uwtable
define linkonce_odr hidden void @_ZN6Assimp7Blender8ElemBaseD2Ev(ptr noundef nonnull align 8 dereferenceable(16) %this) unnamed_addr #0 comdat align 2 {
entry:
  %this.addr = alloca ptr, align 8
  store ptr %this, ptr %this.addr, align 8
  ret void
}

; Function Attrs: mustprogress nounwind uwtable
define linkonce_odr hidden void @_ZN6Assimp7Blender7MLoopUVD2Ev(ptr noundef nonnull align 8 dereferenceable(28) %this) unnamed_addr #0 comdat align 2 {
entry:
  %this.addr = alloca ptr, align 8
  store ptr %this, ptr %this.addr, align 8
  %this1 = load ptr, ptr %this.addr, align 8
  call void @_ZN6Assimp7Blender8ElemBaseD2Ev(ptr noundef nonnull align 8 dereferenceable(16) %this1) #14
  ret void
}

; Function Attrs: mustprogress nounwind uwtable
define hidden void @_ZN6Assimp7Blender14destroyMLoopUVEPNS0_8ElemBaseE(ptr noundef %pE) #0 {
entry:
  %pE.addr = alloca ptr, align 8
  %p = alloca ptr, align 8
  store ptr %pE, ptr %pE.addr, align 8
  %0 = load ptr, ptr %pE.addr, align 8
  %1 = icmp eq ptr %0, null
  br i1 %1, label %dynamic_cast.null, label %dynamic_cast.notnull

dynamic_cast.notnull:                             ; preds = %entry
  %2 = call ptr @__dynamic_cast(ptr %0, ptr @_ZTIN6Assimp7Blender8ElemBaseE, ptr @_ZTIN6Assimp7Blender7MLoopUVE, i64 0) #14
  br label %dynamic_cast.end

dynamic_cast.null:                                ; preds = %entry
  br label %dynamic_cast.end

dynamic_cast.end:                                 ; preds = %dynamic_cast.null, %dynamic_cast.notnull
  %3 = phi ptr [ %2, %dynamic_cast.notnull ], [ null, %dynamic_cast.null ]
  store ptr %3, ptr %p, align 8
  %4 = load ptr, ptr %p, align 8
  %isnull = icmp eq ptr %4, null
  br i1 %isnull, label %delete.end2, label %delete.notnull

delete.notnull:                                   ; preds = %dynamic_cast.end
  %5 = getelementptr inbounds i8, ptr %4, i64 -8
  %6 = load i64, ptr %5, align 8
  %delete.end = getelementptr inbounds %"struct.Assimp::Blender::MLoopUV", ptr %4, i64 %6
  %arraydestroy.isempty = icmp eq ptr %4, %delete.end
  br i1 %arraydestroy.isempty, label %arraydestroy.done1, label %arraydestroy.body

arraydestroy.body:                                ; preds = %arraydestroy.body, %delete.notnull
  %arraydestroy.elementPast = phi ptr [ %delete.end, %delete.notnull ], [ %arraydestroy.element, %arraydestroy.body ]
  %arraydestroy.element = getelementptr inbounds %"struct.Assimp::Blender::MLoopUV", ptr %arraydestroy.elementPast, i64 -1
  call void @_ZN6Assimp7Blender7MLoopUVD2Ev(ptr noundef nonnull align 8 dereferenceable(28) %arraydestroy.element) #14
  %arraydestroy.done = icmp eq ptr %arraydestroy.element, %4
  br i1 %arraydestroy.done, label %arraydestroy.done1, label %arraydestroy.body

arraydestroy.done1:                               ; preds = %arraydestroy.body, %delete.notnull
  call void @_ZdaPv(ptr noundef %5) #17
  br label %delete.end2

delete.end2:                                      ; preds = %arraydestroy.done1, %dynamic_cast.end
  ret void
}